target datalayout = "e-m:e-p270:32:32-p271:32:32-p272:64:64-i64:64-i128:128-f80:128-n8:16:32:64-S128"
target triple = "x86_64-pc-linux-gnu"

%class.Sample_Debug = type <{ %class.Sample, ptr, ptr, ptr, [3 x float], [3 x float], [3 x float], [3 x float], i32, [4 x i8] }>
%class.Sample = type { ptr, ptr, ptr, ptr, ptr, i8, float, float, float, float, float, float, float, float, float, float, float, float, float, i32, i8, i8, i8, ptr, [9 x ptr], ptr, %class.SampleDebugDraw }
%class.SampleDebugDraw = type { %class.DebugDrawGL }
%class.DebugDrawGL = type { %struct.duDebugDraw }
%struct.duDebugDraw = type { ptr }

; Function Attrs: mustprogress nounwind uwtable
define linkonce_odr dso_local noundef i32 @_Z6duRGBAiiii(i32 noundef %0, i32 noundef %1, i32 noundef %2, i32 noundef %3) #3 comdat {
  %5 = alloca i32, align 4
  %6 = alloca i32, align 4
  %7 = alloca i32, align 4
  %8 = alloca i32, align 4
  store i32 %0, ptr %5, align 4
  store i32 %1, ptr %6, align 4
  store i32 %2, ptr %7, align 4
  store i32 %3, ptr %8, align 4
  %9 = load i32, ptr %5, align 4
  %10 = load i32, ptr %6, align 4
  %11 = shl i32 %10, 8
  %12 = or i32 %9, %11
  %13 = load i32, ptr %7, align 4
  %14 = shl i32 %13, 16
  %15 = or i32 %12, %14
  %16 = load i32, ptr %8, align 4
  %17 = shl i32 %16, 24
  %18 = or i32 %15, %17
  ret i32 %18
}

; Function Attrs: mustprogress uwtable
define dso_local void @_ZN12Sample_Debug12handleRenderEv(ptr noundef nonnull align 8 dereferenceable(276) %0) unnamed_addr #0 align 2 {
  %2 = alloca ptr, align 8
  store ptr %0, ptr %2, align 8
  %3 = load ptr, ptr %2, align 8
  %4 = getelementptr inbounds %class.Sample_Debug, ptr %3, i32 0, i32 1
  %5 = load ptr, ptr %4, align 8
  %6 = icmp ne ptr %5, null
  br i1 %6, label %7, label %11

7:                                                ; preds = %1
  %8 = getelementptr inbounds %class.Sample, ptr %3, i32 0, i32 26
  %9 = getelementptr inbounds %class.Sample_Debug, ptr %3, i32 0, i32 1
  %10 = load ptr, ptr %9, align 8
  call void @_Z36duDebugDrawCompactHeightfieldRegionsP11duDebugDrawRK20rcCompactHeightfield(ptr noundef %8, ptr noundef nonnull align 8 dereferenceable(96) %10)
  br label %11

11:                                               ; preds = %7, %1
  %12 = getelementptr inbounds %class.Sample, ptr %3, i32 0, i32 2
  %13 = load ptr, ptr %12, align 8
  %14 = icmp ne ptr %13, null
  br i1 %14, label %15, label %19

15:                                               ; preds = %11
  %16 = getelementptr inbounds %class.Sample, ptr %3, i32 0, i32 26
  %17 = getelementptr inbounds %class.Sample, ptr %3, i32 0, i32 2
  %18 = load ptr, ptr %17, align 8
  call void @_Z18duDebugDrawNavMeshP11duDebugDrawRK9dtNavMeshh(ptr noundef %16, ptr noundef nonnull align 8 dereferenceable(100) %18, i8 noundef zeroext 1)
  br label %19

19:                                               ; preds = %15, %11
  %20 = getelementptr inbounds %class.Sample_Debug, ptr %3, i32 0, i32 8
  %21 = load i32, ptr %20, align 8
  %22 = icmp ne i32 %21, 0
  br i1 %22, label %23, label %34

23:                                               ; preds = %19
  %24 = getelementptr inbounds %class.Sample, ptr %3, i32 0, i32 2
  %25 = load ptr, ptr %24, align 8
  %26 = icmp ne ptr %25, null
  br i1 %26, label %27, label %34

27:                                               ; preds = %23
  %28 = getelementptr inbounds %class.Sample, ptr %3, i32 0, i32 26
  %29 = getelementptr inbounds %class.Sample, ptr %3, i32 0, i32 2
  %30 = load ptr, ptr %29, align 8
  %31 = getelementptr inbounds %class.Sample_Debug, ptr %3, i32 0, i32 8
  %32 = load i32, ptr %31, align 8
  %33 = call noundef i32 @_Z6duRGBAiiii(i32 noundef 255, i32 noundef 0, i32 noundef 0, i32 noundef 128)
  call void @_Z22duDebugDrawNavMeshPolyP11duDebugDrawRK9dtNavMeshjj(ptr noundef %28, ptr noundef nonnull align 8 dereferenceable(100) %30, i32 noundef %32, i32 noundef %33)
  br label %34

34:                                               ; preds = %27, %23, %19
  %35 = getelementptr inbounds %class.Sample_Debug, ptr %3, i32 0, i32 2
  %36 = load ptr, ptr %35, align 8
  %37 = icmp ne ptr %36, null
  br i1 %37, label %38, label %45

38:                                               ; preds = %34
  %39 = getelementptr inbounds %class.Sample, ptr %3, i32 0, i32 26
  %40 = getelementptr inbounds %class.Sample_Debug, ptr %3, i32 0, i32 2
  %41 = load ptr, ptr %40, align 8
  call void @_Z22duDebugDrawRawContoursP11duDebugDrawRK12rcContourSetf(ptr noundef %39, ptr noundef nonnull align 8 dereferenceable(60) %41, float noundef 2.500000e-01)
  %42 = getelementptr inbounds %class.Sample, ptr %3, i32 0, i32 26
  %43 = getelementptr inbounds %class.Sample_Debug, ptr %3, i32 0, i32 2
  %44 = load ptr, ptr %43, align 8
  call void @_Z19duDebugDrawContoursP11duDebugDrawRK12rcContourSetf(ptr noundef %42, ptr noundef nonnull align 8 dereferenceable(60) %44, float noundef 1.000000e+00)
  br label %45

45:                                               ; preds = %38, %34
  %46 = getelementptr inbounds %class.Sample_Debug, ptr %3, i32 0, i32 3
  %47 = load ptr, ptr %46, align 8
  %48 = icmp ne ptr %47, null
  br i1 %48, label %49, label %53

49:                                               ; preds = %45
  %50 = getelementptr inbounds %class.Sample, ptr %3, i32 0, i32 26
  %51 = getelementptr inbounds %class.Sample_Debug, ptr %3, i32 0, i32 3
  %52 = load ptr, ptr %51, align 8
  call void @_Z19duDebugDrawPolyMeshP11duDebugDrawRK10rcPolyMesh(ptr noundef %50, ptr noundef nonnull align 8 dereferenceable(96) %52)
  br label %53

53:                                               ; preds = %49, %45
  ret void
}