; Function Attrs: mustprogress uwtable
define dso_local void @_ZN12Sample_Debug12handleRenderEv(ptr noundef nonnull align 8 dereferenceable(276) %0) unnamed_addr #0 align 2 {
  %2 = getelementptr inbounds i8, ptr %0, i64 200
  %3 = load ptr, ptr %2, align 8
  %.not = icmp eq ptr %3, null
  br i1 %.not, label %6, label %4

4:                                                ; preds = %1
  %5 = getelementptr inbounds i8, ptr %0, i64 192
  tail call void @_Z36duDebugDrawCompactHeightfieldRegionsP11duDebugDrawRK20rcCompactHeightfield(ptr noundef nonnull %5, ptr noundef nonnull align 8 dereferenceable(96) %3)
  br label %6

6:                                                ; preds = %4, %1
  %7 = getelementptr inbounds i8, ptr %0, i64 16
  %8 = load ptr, ptr %7, align 8
  %.not6 = icmp eq ptr %8, null
  br i1 %.not6, label %11, label %9

9:                                                ; preds = %6
  %10 = getelementptr inbounds i8, ptr %0, i64 192
  tail call void @_Z18duDebugDrawNavMeshP11duDebugDrawRK9dtNavMeshh(ptr noundef nonnull %10, ptr noundef nonnull align 8 dereferenceable(100) %8, i8 noundef zeroext 1)
  br label %11

11:                                               ; preds = %9, %6
  %12 = getelementptr inbounds i8, ptr %0, i64 272
  %13 = load i32, ptr %12, align 8
  %.not7 = icmp eq i32 %13, 0
  br i1 %.not7, label %18, label %14

14:                                               ; preds = %11
  %15 = load ptr, ptr %7, align 8
  %.not8 = icmp eq ptr %15, null
  br i1 %.not8, label %18, label %16

16:                                               ; preds = %14
  %17 = getelementptr inbounds i8, ptr %0, i64 192
  tail call void @_Z22duDebugDrawNavMeshPolyP11duDebugDrawRK9dtNavMeshjj(ptr noundef nonnull %17, ptr noundef nonnull align 8 dereferenceable(100) %15, i32 noundef %13, i32 noundef -2147483393)
  br label %18

18:                                               ; preds = %16, %14, %11
  %19 = getelementptr inbounds i8, ptr %0, i64 208
  %20 = load ptr, ptr %19, align 8
  %.not9 = icmp eq ptr %20, null
  br i1 %.not9, label %24, label %21

21:                                               ; preds = %18
  %22 = getelementptr inbounds i8, ptr %0, i64 192
  tail call void @_Z22duDebugDrawRawContoursP11duDebugDrawRK12rcContourSetf(ptr noundef nonnull %22, ptr noundef nonnull align 8 dereferenceable(60) %20, float noundef 2.500000e-01)
  %23 = load ptr, ptr %19, align 8
  tail call void @_Z19duDebugDrawContoursP11duDebugDrawRK12rcContourSetf(ptr noundef nonnull %22, ptr noundef nonnull align 8 dereferenceable(60) %23, float noundef 1.000000e+00)
  br label %24

24:                                               ; preds = %21, %18
  %25 = getelementptr inbounds i8, ptr %0, i64 216
  %26 = load ptr, ptr %25, align 8
  %.not10 = icmp eq ptr %26, null
  br i1 %.not10, label %29, label %27

27:                                               ; preds = %24
  %28 = getelementptr inbounds i8, ptr %0, i64 192
  tail call void @_Z19duDebugDrawPolyMeshP11duDebugDrawRK10rcPolyMesh(ptr noundef nonnull %28, ptr noundef nonnull align 8 dereferenceable(96) %26)
  br label %29

29:                                               ; preds = %27, %24
  ret void
}